target datalayout = "e-m:e-p270:32:32-p271:32:32-p272:64:64-i64:64-i128:128-f80:128-n8:16:32:64-S128"
target triple = "x86_64-pc-linux-gnu"

%class.FpuStackSim = type <{ ptr, i32, [8 x i32], [4 x i8] }>

; Function Attrs: mustprogress nounwind uwtable
define hidden void @_ZN11FpuStackSim11set_regs_atEii(ptr noundef nonnull align 8 dereferenceable(44) %0, i32 noundef %1, i32 noundef %2) #1 align 2 {
  %4 = alloca ptr, align 8
  %5 = alloca i32, align 4
  %6 = alloca i32, align 4
  store ptr %0, ptr %4, align 8
  store i32 %1, ptr %5, align 4
  store i32 %2, ptr %6, align 4
  %7 = load ptr, ptr %4, align 8
  %8 = load i32, ptr %6, align 4
  %9 = getelementptr inbounds %class.FpuStackSim, ptr %7, i32 0, i32 2
  %10 = load i32, ptr %5, align 4
  %11 = sext i32 %10 to i64
  %12 = getelementptr inbounds [8 x i32], ptr %9, i64 0, i64 %11
  store i32 %8, ptr %12, align 4
  ret void
}

; Function Attrs: mustprogress nounwind uwtable
define hidden noundef i32 @_ZNK11FpuStackSim7regs_atEi(ptr noundef nonnull align 8 dereferenceable(44) %0, i32 noundef %1) #1 align 2 {
  %3 = alloca ptr, align 8
  %4 = alloca i32, align 4
  store ptr %0, ptr %3, align 8
  store i32 %1, ptr %4, align 4
  %5 = load ptr, ptr %3, align 8
  %6 = getelementptr inbounds %class.FpuStackSim, ptr %5, i32 0, i32 2
  %7 = load i32, ptr %4, align 4
  %8 = sext i32 %7 to i64
  %9 = getelementptr inbounds [8 x i32], ptr %6, i64 0, i64 %8
  %10 = load i32, ptr %9, align 4
  ret i32 %10
}

; Function Attrs: mustprogress nounwind uwtable
define linkonce_odr hidden noundef i32 @_ZNK11FpuStackSim10stack_sizeEv(ptr noundef nonnull align 8 dereferenceable(44) %0) #1 comdat align 2 {
  %2 = alloca ptr, align 8
  store ptr %0, ptr %2, align 8
  %3 = load ptr, ptr %2, align 8
  %4 = getelementptr inbounds %class.FpuStackSim, ptr %3, i32 0, i32 1
  %5 = load i32, ptr %4, align 8
  ret i32 %5
}

; Function Attrs: mustprogress nounwind uwtable
define hidden void @_ZN11FpuStackSim6renameEii(ptr noundef nonnull align 8 dereferenceable(44) %0, i32 noundef %1, i32 noundef %2) #1 align 2 {
  %4 = alloca ptr, align 8
  %5 = alloca i32, align 4
  %6 = alloca i32, align 4
  %7 = alloca i8, align 1
  %8 = alloca i32, align 4
  store ptr %0, ptr %4, align 8
  store i32 %1, ptr %5, align 4
  store i32 %2, ptr %6, align 4
  %9 = load ptr, ptr %4, align 8
  %10 = load i32, ptr %5, align 4
  %11 = load i32, ptr %6, align 4
  %12 = icmp eq i32 %10, %11
  br i1 %12, label %13, label %14

13:                                               ; preds = %3
  br label %31

14:                                               ; preds = %3
  store i8 0, ptr %7, align 1
  store i32 0, ptr %8, align 4
  br label %15

15:                                               ; preds = %28, %14
  %16 = load i32, ptr %8, align 4
  %17 = call noundef i32 @_ZNK11FpuStackSim10stack_sizeEv(ptr noundef nonnull align 8 dereferenceable(44) %9)
  %18 = icmp slt i32 %16, %17
  br i1 %18, label %19, label %31

19:                                               ; preds = %15
  %20 = load i32, ptr %8, align 4
  %21 = call noundef i32 @_ZNK11FpuStackSim7regs_atEi(ptr noundef nonnull align 8 dereferenceable(44) %9, i32 noundef %20)
  %22 = load i32, ptr %5, align 4
  %23 = icmp eq i32 %21, %22
  br i1 %23, label %24, label %27

24:                                               ; preds = %19
  %25 = load i32, ptr %8, align 4
  %26 = load i32, ptr %6, align 4
  call void @_ZN11FpuStackSim11set_regs_atEii(ptr noundef nonnull align 8 dereferenceable(44) %9, i32 noundef %25, i32 noundef %26)
  store i8 1, ptr %7, align 1
  br label %27

27:                                               ; preds = %24, %19
  br label %28

28:                                               ; preds = %27
  %29 = load i32, ptr %8, align 4
  %30 = add nsw i32 %29, 1
  store i32 %30, ptr %8, align 4
  br label %15, !llvm.loop !9

31:                                               ; preds = %15, %13
  ret void
}