; Function Attrs: mustprogress nofree norecurse nosync nounwind memory(argmem: readwrite) uwtable
define hidden void @_ZN11FpuStackSim6renameEii(ptr nocapture noundef nonnull align 8 dereferenceable(44) %0, i32 noundef %1, i32 noundef %2) local_unnamed_addr #4 align 2 {
  %4 = icmp eq i32 %1, %2
  br i1 %4, label %.loopexit, label %.preheader

.preheader:                                       ; preds = %3
  %5 = getelementptr inbounds i8, ptr %0, i64 8
  %6 = load i32, ptr %5, align 8
  %7 = icmp sgt i32 %6, 0
  br i1 %7, label %.lr.ph, label %.loopexit

.lr.ph:                                           ; preds = %.preheader
  %8 = getelementptr inbounds i8, ptr %0, i64 12
  %wide.trip.count = zext nneg i32 %6 to i64
  br label %9

9:                                                ; preds = %.lr.ph, %14
  %indvars.iv = phi i64 [ 0, %.lr.ph ], [ %indvars.iv.next, %14 ]
  %10 = getelementptr inbounds [8 x i32], ptr %8, i64 0, i64 %indvars.iv
  %11 = load i32, ptr %10, align 4
  %12 = icmp eq i32 %11, %1
  br i1 %12, label %13, label %14

13:                                               ; preds = %9
  store i32 %2, ptr %10, align 4
  br label %14

14:                                               ; preds = %9, %13
  %indvars.iv.next = add nuw nsw i64 %indvars.iv, 1
  %exitcond.not = icmp eq i64 %indvars.iv.next, %wide.trip.count
  br i1 %exitcond.not, label %.loopexit, label %9, !llvm.loop !8

.loopexit:                                        ; preds = %14, %.preheader, %3
  ret void
}